; Function Attrs: mustprogress nounwind uwtable
define internal void @_ZN12_GLOBAL__N_118DereferenceCheckerD2Ev(ptr noundef nonnull align 8 dereferenceable(353) %0) unnamed_addr #0 align 2 {
  store ptr getelementptr inbounds inrange(-16, 32) (i8, ptr @_ZTVN12_GLOBAL__N_118DereferenceCheckerE, i64 16), ptr %0, align 8
  %2 = getelementptr inbounds nuw i8, ptr %0, i64 248
  store ptr getelementptr inbounds inrange(-16, 24) (i8, ptr @_ZTVN5clang4ento7BugTypeE, i64 16), ptr %2, align 8
  %3 = getelementptr inbounds i8, ptr %0, i64 304
  tail call void @_ZNSt7__cxx1112basic_stringIcSt11char_traitsIcESaIcEED1Ev(ptr noundef nonnull align 8 dereferenceable(32) %3) #17
  %4 = getelementptr inbounds i8, ptr %0, i64 272
  tail call void @_ZNSt7__cxx1112basic_stringIcSt11char_traitsIcESaIcEED1Ev(ptr noundef nonnull align 8 dereferenceable(32) %4) #17
  %5 = getelementptr inbounds nuw i8, ptr %0, i64 144
  store ptr getelementptr inbounds inrange(-16, 24) (i8, ptr @_ZTVN5clang4ento7BugTypeE, i64 16), ptr %5, align 8
  %6 = getelementptr inbounds i8, ptr %0, i64 200
  tail call void @_ZNSt7__cxx1112basic_stringIcSt11char_traitsIcESaIcEED1Ev(ptr noundef nonnull align 8 dereferenceable(32) %6) #17
  %7 = getelementptr inbounds i8, ptr %0, i64 168
  tail call void @_ZNSt7__cxx1112basic_stringIcSt11char_traitsIcESaIcEED1Ev(ptr noundef nonnull align 8 dereferenceable(32) %7) #17
  %8 = getelementptr inbounds nuw i8, ptr %0, i64 40
  store ptr getelementptr inbounds inrange(-16, 24) (i8, ptr @_ZTVN5clang4ento7BugTypeE, i64 16), ptr %8, align 8
  %9 = getelementptr inbounds i8, ptr %0, i64 96
  tail call void @_ZNSt7__cxx1112basic_stringIcSt11char_traitsIcESaIcEED1Ev(ptr noundef nonnull align 8 dereferenceable(32) %9) #17
  %10 = getelementptr inbounds i8, ptr %0, i64 64
  tail call void @_ZNSt7__cxx1112basic_stringIcSt11char_traitsIcESaIcEED1Ev(ptr noundef nonnull align 8 dereferenceable(32) %10) #17
  tail call void @_ZN5clang15ProgramPointTagD2Ev(ptr noundef nonnull align 8 dereferenceable(16) %0) #17
  ret void
}